; ModuleID = 'source-C-CXX/10/1089.cpp'
source_filename = "source-C-CXX/10/1089.cpp"
target datalayout = "e-m:e-p270:32:32-p271:32:32-p272:64:64-i64:64-f80:128-n8:16:32:64-S128"
target triple = "x86_64-pc-linux-gnu"

%"class.std::ios_base::Init" = type { i8 }
%"class.std::basic_istream" = type { i32 (...)**, i64, %"class.std::basic_ios" }
%"class.std::basic_ios" = type { %"class.std::ios_base", %"class.std::basic_ostream"*, i8, i8, %"class.std::basic_streambuf"*, %"class.std::ctype"*, %"class.std::num_put"*, %"class.std::num_get"* }
%"class.std::ios_base" = type { i32 (...)**, i64, i64, i32, i32, i32, %"struct.std::ios_base::_Callback_list"*, %"struct.std::ios_base::_Words", [8 x %"struct.std::ios_base::_Words"], i32, %"struct.std::ios_base::_Words"*, %"class.std::locale" }
%"struct.std::ios_base::_Callback_list" = type { %"struct.std::ios_base::_Callback_list"*, void (i32, %"class.std::ios_base"*, i32)*, i32, i32 }
%"struct.std::ios_base::_Words" = type { i8*, i64 }
%"class.std::locale" = type { %"class.std::locale::_Impl"* }
%"class.std::locale::_Impl" = type { i32, %"class.std::locale::facet"**, i64, %"class.std::locale::facet"**, i8** }
%"class.std::locale::facet" = type <{ i32 (...)**, i32, [4 x i8] }>
%"class.std::basic_ostream" = type { i32 (...)**, %"class.std::basic_ios" }
%"class.std::basic_streambuf" = type { i32 (...)**, i8*, i8*, i8*, i8*, i8*, i8*, %"class.std::locale" }
%"class.std::ctype" = type <{ %"class.std::locale::facet.base", [4 x i8], %struct.__locale_struct*, i8, [7 x i8], i32*, i32*, i16*, i8, [256 x i8], [256 x i8], i8, [6 x i8] }>
%"class.std::locale::facet.base" = type <{ i32 (...)**, i32 }>
%struct.__locale_struct = type { [13 x %struct.__locale_data*], i16*, i32*, i32*, [13 x i8*] }
%struct.__locale_data = type opaque
%"class.std::num_put" = type { %"class.std::locale::facet.base", [4 x i8] }
%"class.std::num_get" = type { %"class.std::locale::facet.base", [4 x i8] }

@_ZStL8__ioinit = internal global %"class.std::ios_base::Init" zeroinitializer, align 1
@__dso_handle = external hidden global i8
@__const.main.max = private unnamed_addr constant [13 x i32] [i32 0, i32 31, i32 28, i32 31, i32 30, i32 31, i32 30, i32 31, i32 31, i32 30, i32 31, i32 30, i32 31], align 16
@_ZSt3cin = external global %"class.std::basic_istream", align 8
@_ZSt4cout = external global %"class.std::basic_ostream", align 8
@llvm.global_ctors = appending global [1 x { i32, void ()*, i8* }] [{ i32, void ()*, i8* } { i32 65535, void ()* @_GLOBAL__sub_I_1089.cpp, i8* null }]

declare void @_ZNSt8ios_base4InitC1Ev(%"class.std::ios_base::Init"* nonnull align 1 dereferenceable(1)) unnamed_addr #0

; Function Attrs: nounwind
declare void @_ZNSt8ios_base4InitD1Ev(%"class.std::ios_base::Init"* nonnull align 1 dereferenceable(1)) unnamed_addr #1

; Function Attrs: nofree nounwind
declare i32 @__cxa_atexit(void (i8*)*, i8*, i8*) local_unnamed_addr #2

; Function Attrs: mustprogress norecurse sspstrong uwtable
define dso_local i32 @main() local_unnamed_addr #3 {
  %1 = alloca [13 x i32], align 16
  %2 = alloca i32, align 4
  %3 = alloca i32, align 4
  %4 = alloca i32, align 4
  %5 = alloca i32, align 4
  %6 = bitcast [13 x i32]* %1 to i8*
  call void @llvm.lifetime.start.p0i8(i64 52, i8* nonnull %6) #8
  call void @llvm.memcpy.p0i8.p0i8.i64(i8* noundef nonnull align 16 dereferenceable(52) %6, i8* noundef nonnull align 16 dereferenceable(52) bitcast ([13 x i32]* @__const.main.max to i8*), i64 52, i1 false)
  %7 = bitcast i32* %2 to i8*
  call void @llvm.lifetime.start.p0i8(i64 4, i8* nonnull %7) #8
  %8 = bitcast i32* %3 to i8*
  call void @llvm.lifetime.start.p0i8(i64 4, i8* nonnull %8) #8
  %9 = bitcast i32* %4 to i8*
  call void @llvm.lifetime.start.p0i8(i64 4, i8* nonnull %9) #8
  %10 = call nonnull align 8 dereferenceable(16) %"class.std::basic_istream"* @_ZNSirsERi(%"class.std::basic_istream"* nonnull align 8 dereferenceable(16) @_ZSt3cin, i32* nonnull align 4 dereferenceable(4) %2)
  %11 = call nonnull align 8 dereferenceable(16) %"class.std::basic_istream"* @_ZNSirsERi(%"class.std::basic_istream"* nonnull align 8 dereferenceable(16) %10, i32* nonnull align 4 dereferenceable(4) %3)
  %12 = call nonnull align 8 dereferenceable(16) %"class.std::basic_istream"* @_ZNSirsERi(%"class.std::basic_istream"* nonnull align 8 dereferenceable(16) %11, i32* nonnull align 4 dereferenceable(4) %4)
  %13 = load i32, i32* %2, align 4, !tbaa !5
  %14 = and i32 %13, 3
  %15 = icmp eq i32 %14, 0
  %16 = srem i32 %13, 100
  %17 = icmp ne i32 %16, 0
  %18 = and i1 %15, %17
  %19 = srem i32 %13, 400
  %20 = icmp eq i32 %19, 0
  %21 = select i1 %18, i1 true, i1 %20
  br i1 %21, label %22, label %24

22:                                               ; preds = %0
  %23 = getelementptr inbounds [13 x i32], [13 x i32]* %1, i64 0, i64 2
  store i32 29, i32* %23, align 8, !tbaa !5
  br label %24

24:                                               ; preds = %0, %22
  %25 = load i32, i32* %3, align 4, !tbaa !5
  %26 = icmp sgt i32 %25, 1
  br i1 %26, label %27, label %126

27:                                               ; preds = %24
  %28 = zext i32 %25 to i64
  %29 = add nsw i64 %28, -1
  %30 = icmp ult i64 %29, 8
  br i1 %30, label %115, label %31

31:                                               ; preds = %27
  %32 = and i64 %29, -8
  %33 = or i64 %32, 1
  %34 = add nsw i64 %32, -8
  %35 = lshr exact i64 %34, 3
  %36 = add nuw nsw i64 %35, 1
  %37 = and i64 %36, 3
  %38 = icmp ult i64 %34, 24
  br i1 %38, label %85, label %39

39:                                               ; preds = %31
  %40 = and i64 %36, 4611686018427387900
  br label %41

41:                                               ; preds = %41, %39
  %42 = phi i64 [ 0, %39 ], [ %82, %41 ]
  %43 = phi <4 x i32> [ zeroinitializer, %39 ], [ %80, %41 ]
  %44 = phi <4 x i32> [ zeroinitializer, %39 ], [ %81, %41 ]
  %45 = phi i64 [ %40, %39 ], [ %83, %41 ]
  %46 = or i64 %42, 1
  %47 = getelementptr inbounds [13 x i32], [13 x i32]* %1, i64 0, i64 %46
  %48 = bitcast i32* %47 to <4 x i32>*
  %49 = load <4 x i32>, <4 x i32>* %48, align 4, !tbaa !5
  %50 = getelementptr inbounds i32, i32* %47, i64 4
  %51 = bitcast i32* %50 to <4 x i32>*
  %52 = load <4 x i32>, <4 x i32>* %51, align 4, !tbaa !5
  %53 = add <4 x i32> %49, %43
  %54 = add <4 x i32> %52, %44
  %55 = or i64 %42, 9
  %56 = getelementptr inbounds [13 x i32], [13 x i32]* %1, i64 0, i64 %55
  %57 = bitcast i32* %56 to <4 x i32>*
  %58 = load <4 x i32>, <4 x i32>* %57, align 4, !tbaa !5
  %59 = getelementptr inbounds i32, i32* %56, i64 4
  %60 = bitcast i32* %59 to <4 x i32>*
  %61 = load <4 x i32>, <4 x i32>* %60, align 4, !tbaa !5
  %62 = add <4 x i32> %58, %53
  %63 = add <4 x i32> %61, %54
  %64 = or i64 %42, 17
  %65 = getelementptr inbounds [13 x i32], [13 x i32]* %1, i64 0, i64 %64
  %66 = bitcast i32* %65 to <4 x i32>*
  %67 = load <4 x i32>, <4 x i32>* %66, align 4, !tbaa !5
  %68 = getelementptr inbounds i32, i32* %65, i64 4
  %69 = bitcast i32* %68 to <4 x i32>*
  %70 = load <4 x i32>, <4 x i32>* %69, align 4, !tbaa !5
  %71 = add <4 x i32> %67, %62
  %72 = add <4 x i32> %70, %63
  %73 = or i64 %42, 25
  %74 = getelementptr inbounds [13 x i32], [13 x i32]* %1, i64 0, i64 %73
  %75 = bitcast i32* %74 to <4 x i32>*
  %76 = load <4 x i32>, <4 x i32>* %75, align 4, !tbaa !5
  %77 = getelementptr inbounds i32, i32* %74, i64 4
  %78 = bitcast i32* %77 to <4 x i32>*
  %79 = load <4 x i32>, <4 x i32>* %78, align 4, !tbaa !5
  %80 = add <4 x i32> %76, %71
  %81 = add <4 x i32> %79, %72
  %82 = add nuw i64 %42, 32
  %83 = add i64 %45, -4
  %84 = icmp eq i64 %83, 0
  br i1 %84, label %85, label %41, !llvm.loop !9

85:                                               ; preds = %41, %31
  %86 = phi <4 x i32> [ undef, %31 ], [ %80, %41 ]
  %87 = phi <4 x i32> [ undef, %31 ], [ %81, %41 ]
  %88 = phi i64 [ 0, %31 ], [ %82, %41 ]
  %89 = phi <4 x i32> [ zeroinitializer, %31 ], [ %80, %41 ]
  %90 = phi <4 x i32> [ zeroinitializer, %31 ], [ %81, %41 ]
  %91 = icmp eq i64 %37, 0
  br i1 %91, label %109, label %92

92:                                               ; preds = %85, %92
  %93 = phi i64 [ %106, %92 ], [ %88, %85 ]
  %94 = phi <4 x i32> [ %104, %92 ], [ %89, %85 ]
  %95 = phi <4 x i32> [ %105, %92 ], [ %90, %85 ]
  %96 = phi i64 [ %107, %92 ], [ %37, %85 ]
  %97 = or i64 %93, 1
  %98 = getelementptr inbounds [13 x i32], [13 x i32]* %1, i64 0, i64 %97
  %99 = bitcast i32* %98 to <4 x i32>*
  %100 = load <4 x i32>, <4 x i32>* %99, align 4, !tbaa !5
  %101 = getelementptr inbounds i32, i32* %98, i64 4
  %102 = bitcast i32* %101 to <4 x i32>*
  %103 = load <4 x i32>, <4 x i32>* %102, align 4, !tbaa !5
  %104 = add <4 x i32> %100, %94
  %105 = add <4 x i32> %103, %95
  %106 = add nuw i64 %93, 8
  %107 = add i64 %96, -1
  %108 = icmp eq i64 %107, 0
  br i1 %108, label %109, label %92, !llvm.loop !12

109:                                              ; preds = %92, %85
  %110 = phi <4 x i32> [ %86, %85 ], [ %104, %92 ]
  %111 = phi <4 x i32> [ %87, %85 ], [ %105, %92 ]
  %112 = add <4 x i32> %111, %110
  %113 = call i32 @llvm.vector.reduce.add.v4i32(<4 x i32> %112)
  %114 = icmp eq i64 %29, %32
  br i1 %114, label %126, label %115

115:                                              ; preds = %27, %109
  %116 = phi i64 [ 1, %27 ], [ %33, %109 ]
  %117 = phi i32 [ 0, %27 ], [ %113, %109 ]
  br label %118

118:                                              ; preds = %115, %118
  %119 = phi i64 [ %124, %118 ], [ %116, %115 ]
  %120 = phi i32 [ %123, %118 ], [ %117, %115 ]
  %121 = getelementptr inbounds [13 x i32], [13 x i32]* %1, i64 0, i64 %119
  %122 = load i32, i32* %121, align 4, !tbaa !5
  %123 = add nsw i32 %122, %120
  %124 = add nuw nsw i64 %119, 1
  %125 = icmp eq i64 %124, %28
  br i1 %125, label %126, label %118, !llvm.loop !14

126:                                              ; preds = %118, %109, %24
  %127 = phi i32 [ 0, %24 ], [ %113, %109 ], [ %123, %118 ]
  %128 = load i32, i32* %4, align 4, !tbaa !5
  %129 = add nsw i32 %128, %127
  %130 = call nonnull align 8 dereferenceable(8) %"class.std::basic_ostream"* @_ZNSolsEi(%"class.std::basic_ostream"* nonnull align 8 dereferenceable(8) @_ZSt4cout, i32 %129)
  %131 = bitcast i32* %5 to i8*
  call void @llvm.lifetime.start.p0i8(i64 4, i8* nonnull %131) #8
  %132 = call nonnull align 8 dereferenceable(16) %"class.std::basic_istream"* @_ZNSirsERi(%"class.std::basic_istream"* nonnull align 8 dereferenceable(16) @_ZSt3cin, i32* nonnull align 4 dereferenceable(4) %5)
  call void @llvm.lifetime.end.p0i8(i64 4, i8* nonnull %131) #8
  call void @llvm.lifetime.end.p0i8(i64 4, i8* nonnull %9) #8
  call void @llvm.lifetime.end.p0i8(i64 4, i8* nonnull %8) #8
  call void @llvm.lifetime.end.p0i8(i64 4, i8* nonnull %7) #8
  call void @llvm.lifetime.end.p0i8(i64 52, i8* nonnull %6) #8
  ret i32 0
}

; Function Attrs: argmemonly mustprogress nofree nosync nounwind willreturn
declare void @llvm.lifetime.start.p0i8(i64 immarg, i8* nocapture) #4

; Function Attrs: argmemonly mustprogress nofree nounwind willreturn
declare void @llvm.memcpy.p0i8.p0i8.i64(i8* noalias nocapture writeonly, i8* noalias nocapture readonly, i64, i1 immarg) #5

declare nonnull align 8 dereferenceable(16) %"class.std::basic_istream"* @_ZNSirsERi(%"class.std::basic_istream"* nonnull align 8 dereferenceable(16), i32* nonnull align 4 dereferenceable(4)) local_unnamed_addr #0

declare nonnull align 8 dereferenceable(8) %"class.std::basic_ostream"* @_ZNSolsEi(%"class.std::basic_ostream"* nonnull align 8 dereferenceable(8), i32) local_unnamed_addr #0

; Function Attrs: argmemonly mustprogress nofree nosync nounwind willreturn
declare void @llvm.lifetime.end.p0i8(i64 immarg, i8* nocapture) #4

; Function Attrs: sspstrong uwtable
define internal void @_GLOBAL__sub_I_1089.cpp() #6 section ".text.startup" {
  tail call void @_ZNSt8ios_base4InitC1Ev(%"class.std::ios_base::Init"* nonnull align 1 dereferenceable(1) @_ZStL8__ioinit)
  %1 = tail call i32 @__cxa_atexit(void (i8*)* bitcast (void (%"class.std::ios_base::Init"*)* @_ZNSt8ios_base4InitD1Ev to void (i8*)*), i8* getelementptr inbounds (%"class.std::ios_base::Init", %"class.std::ios_base::Init"* @_ZStL8__ioinit, i64 0, i32 0), i8* nonnull @__dso_handle) #8
  ret void
}

; Function Attrs: nofree nosync nounwind readnone willreturn
declare i32 @llvm.vector.reduce.add.v4i32(<4 x i32>) #7


!llvm.module.flags = !{!0, !1, !2, !3}
!llvm.ident = !{!4}

!0 = !{i32 1, !"wchar_size", i32 4}
!1 = !{i32 7, !"PIC Level", i32 2}
!2 = !{i32 7, !"PIE Level", i32 2}
!3 = !{i32 7, !"uwtable", i32 1}
!4 = !{!"clang version 13.0.0"}
!5 = !{!6, !6, i64 0}
!6 = !{!"int", !7, i64 0}
!7 = !{!"omnipotent char", !8, i64 0}
!8 = !{!"Simple C++ TBAA"}
!9 = distinct !{!9, !10, !11}
!10 = !{!"llvm.loop.mustprogress"}
!11 = !{!"llvm.loop.isvectorized", i32 1}
!12 = distinct !{!12, !13}
!13 = !{!"llvm.loop.unroll.disable"}
!14 = distinct !{!14, !10, !15, !11}
!15 = !{!"llvm.loop.unroll.runtime.disable"}
